target datalayout = "e-m:e-p270:32:32-p271:32:32-p272:64:64-i64:64-i128:128-f80:128-n8:16:32:64-S128"
target triple = "x86_64-pc-linux-gnu"

%struct.tagpoint = type { i32, i32 }

; Function Attrs: nounwind uwtable
define i32 @_testfunc_byval(i64 %0, ptr noundef %1) #0 {
  %3 = alloca %struct.tagpoint, align 4
  %4 = alloca ptr, align 8
  store i64 %0, ptr %3, align 4
  store ptr %1, ptr %4, align 8, !tbaa !64
  %5 = load ptr, ptr %4, align 8, !tbaa !64
  %6 = icmp ne ptr %5, null
  br i1 %6, label %7, label %16

7:                                                ; preds = %2
  %8 = getelementptr inbounds nuw %struct.tagpoint, ptr %3, i32 0, i32 0
  %9 = load i32, ptr %8, align 4, !tbaa !66
  %10 = load ptr, ptr %4, align 8, !tbaa !64
  %11 = getelementptr inbounds nuw %struct.tagpoint, ptr %10, i32 0, i32 0
  store i32 %9, ptr %11, align 4, !tbaa !66
  %12 = getelementptr inbounds nuw %struct.tagpoint, ptr %3, i32 0, i32 1
  %13 = load i32, ptr %12, align 4, !tbaa !68
  %14 = load ptr, ptr %4, align 8, !tbaa !64
  %15 = getelementptr inbounds nuw %struct.tagpoint, ptr %14, i32 0, i32 1
  store i32 %13, ptr %15, align 4, !tbaa !68
  br label %16

16:                                               ; preds = %7, %2
  %17 = getelementptr inbounds nuw %struct.tagpoint, ptr %3, i32 0, i32 0
  %18 = load i32, ptr %17, align 4, !tbaa !66
  %19 = getelementptr inbounds nuw %struct.tagpoint, ptr %3, i32 0, i32 1
  %20 = load i32, ptr %19, align 4, !tbaa !68
  %21 = add i32 %18, %20
  ret i32 %21
}