; Function Attrs: mustprogress nofree norecurse nosync nounwind willreturn memory(argmem: write) uwtable
define i32 @_testfunc_byval(i64 %0, ptr noundef writeonly %1) local_unnamed_addr #23 {
  %.sroa.0.0.extract.trunc = trunc i64 %0 to i32
  %.sroa.3.0.extract.shift = lshr i64 %0, 32
  %.sroa.3.0.extract.trunc = trunc nuw i64 %.sroa.3.0.extract.shift to i32
  %.not = icmp eq ptr %1, null
  br i1 %.not, label %5, label %3

3:                                                ; preds = %2
  store i32 %.sroa.0.0.extract.trunc, ptr %1, align 4, !tbaa !56
  %4 = getelementptr inbounds nuw i8, ptr %1, i64 4
  store i32 %.sroa.3.0.extract.trunc, ptr %4, align 4, !tbaa !58
  br label %5

5:                                                ; preds = %3, %2
  %6 = add i32 %.sroa.3.0.extract.trunc, %.sroa.0.0.extract.trunc
  ret i32 %6
}